Certificate:
    Data:
        Version: 3 (0x2)
        Serial Number:
            0c:10:6e:df:44:9f:07:f4:f4:98:5c:73:5e:14:fc:39
    Signature Algorithm: sha256WithRSAEncryption
        Issuer: C=NL, ST=Noord-Holland, L=Amsterdam, O=TERENA, CN=TERENA SSL High Assurance CA 3
        Validity
            Not Before: Jan 12 00:00:00 2018 GMT
            Not After : Jan 17 12:00:00 2020 GMT
        Subject: businessCategory=Government Entity/jurisdictionC=CZ/serialNumber=Government Entity, C=CZ, L=Praha 6, O=Czech Technical University in Prague, CN=fit.cvut.cz
        Subject Public Key Info:
            Public Key Algorithm: rsaEncryption
                Public-Key: (2048 bit)
                Modulus:
                    00:c8:73:fb:18:0c:f5:64:b1:e5:44:58:82:75:ee:
                    15:c5:a8:24:31:e0:78:86:41:5f:14:b4:b8:3f:8e:
                    e6:e5:d5:0f:de:2e:96:39:a5:fe:44:5f:e7:54:45:
                    6e:f3:6c:52:22:21:66:0f:9f:f4:b9:1c:1d:eb:a9:
                    96:40:24:0b:13:6c:92:90:61:ba:b2:4c:80:24:28:
                    b0:2e:ab:a1:09:a2:c0:f0:c9:41:b5:e4:04:37:a8:
                    82:e0:96:96:16:98:99:12:5c:a0:a4:9c:94:83:42:
                    dd:d2:d2:70:8d:61:d2:b6:49:1d:62:1b:04:20:c7:
                    e0:80:3f:bf:26:eb:45:b1:4f:67:41:cd:c6:65:a4:
                    4c:1c:d8:98:0d:4a:19:ba:7f:d1:9d:cd:36:ce:d5:
                    33:76:61:df:d6:22:0b:a1:6b:ed:d5:cb:fd:db:dc:
                    2d:7f:d0:6c:d6:9d:b8:63:8f:7c:45:09:ed:d1:0b:
                    e8:40:ae:56:55:bf:25:d0:2b:18:6d:28:75:10:c2:
                    63:1f:47:0c:30:5a:c3:42:c7:75:13:39:3e:44:c0:
                    dd:06:ad:67:bf:eb:62:9c:65:28:92:a6:04:64:d5:
                    2c:46:64:cf:5d:26:19:3b:d8:d0:a9:79:1d:8c:02:
                    33:9b:8a:0f:e1:50:38:e4:1f:ad:fc:68:4d:5d:b4:
                    51:bd
                Exponent: 65537 (0x10001)
        X509v3 extensions:
            X509v3 Authority Key Identifier: 
                keyid:C2:B8:85:D7:E1:B9:13:BD:D1:48:BC:FD:5E:DC:7D:90:42:7A:8A:A9

            X509v3 Subject Key Identifier: 
                9E:2D:6F:4B:24:9C:7E:6A:11:70:78:2A:9D:93:76:0B:37:B0:8D:DA
            X509v3 Subject Alternative Name: 
                DNS:fit.cvut.cz, DNS:www.fit.cvut.cz
            X509v3 Key Usage: critical
                Digital Signature, Key Encipherment
            X509v3 Extended Key Usage: 
                TLS Web Server Authentication, TLS Web Client Authentication
            X509v3 CRL Distribution Points: 

                Full Name:
                  URI:http://crl3.digicert.com/TERENASSLHighAssuranceCA3.crl

                Full Name:
                  URI:http://crl4.digicert.com/TERENASSLHighAssuranceCA3.crl

            X509v3 Certificate Policies: 
                Policy: 2.16.840.1.114412.2.1
                  CPS: https://www.digicert.com/CPS
                Policy: 2.23.140.1.1

            Authority Information Access: 
                OCSP - URI:http://ocsp.digicert.com
                CA Issuers - URI:http://cacerts.digicert.com/TERENASSLHighAssuranceCA3.crt

            X509v3 Basic Constraints: critical
                CA:FALSE
            CT Precertificate SCTs: 
                Signed Certificate Timestamp:
                    Version   : v1(0)
                    Log ID    : A4:B9:09:90:B4:18:58:14:87:BB:13:A2:CC:67:70:0A:
                                3C:35:98:04:F9:1B:DF:B8:E3:77:CD:0E:C8:0D:DC:10
                    Timestamp : Jan 12 13:32:39.311 2018 GMT
                    Extensions: none
                    Signature : ecdsa-with-SHA256
                                30:46:02:21:00:E3:66:17:79:07:72:A0:56:A4:31:0D:
                                3E:94:71:79:CD:FD:16:2F:C3:CE:41:84:3C:1B:31:45:
                                20:D3:ED:55:27:02:21:00:ED:2A:C7:66:AB:0C:7E:A4:
                                5F:D8:83:19:97:82:A0:E8:4A:B6:11:17:6C:62:80:5B:
                                D5:EF:8B:84:60:B7:F2:14
                Signed Certificate Timestamp:
                    Version   : v1(0)
                    Log ID    : 56:14:06:9A:2F:D7:C2:EC:D3:F5:E1:BD:44:B2:3E:C7:
                                46:76:B9:BC:99:11:5C:C0:EF:94:98:55:D6:89:D0:DD
                    Timestamp : Jan 12 13:32:39.571 2018 GMT
                    Extensions: none
                    Signature : ecdsa-with-SHA256
                                30:45:02:20:09:78:63:AF:A3:0D:BA:31:DE:4F:E7:1C:
                                DB:2E:61:0D:E7:1E:09:6F:E2:75:79:5A:B2:D7:02:9D:
                                23:ED:83:86:02:21:00:82:D9:27:2F:3E:CD:C7:DB:13:
                                3B:F9:37:D7:B9:5F:32:FA:2B:C8:39:06:58:91:4F:6A:
                                38:A5:BE:2C:F3:46:65
                Signed Certificate Timestamp:
                    Version   : v1(0)
                    Log ID    : EE:4B:BD:B7:75:CE:60:BA:E1:42:69:1F:AB:E1:9E:66:
                                A3:0F:7E:5F:B0:72:D8:83:00:C4:7B:89:7A:A8:FD:CB
                    Timestamp : Jan 12 13:32:40.072 2018 GMT
                    Extensions: none
                    Signature : ecdsa-with-SHA256
                                30:44:02:20:65:77:DC:71:0F:F9:80:34:3A:DA:5A:5B:
                                EC:98:A0:21:BF:24:B9:D8:2D:C9:C8:98:E9:29:F4:EC:
                                B3:74:B3:09:02:20:66:49:D0:A2:C6:66:39:BE:97:74:
                                32:92:A6:F1:9B:16:88:34:6D:19:97:D7:FB:71:75:D2:
                                14:BF:FD:9B:E4:D9
                Signed Certificate Timestamp:
                    Version   : v1(0)
                    Log ID    : BB:D9:DF:BC:1F:8A:71:B5:93:94:23:97:AA:92:7B:47:
                                38:57:95:0A:AB:52:E8:1A:90:96:64:36:8E:1E:D1:85
                    Timestamp : Jan 12 13:32:39.294 2018 GMT
                    Extensions: none
                    Signature : ecdsa-with-SHA256
                                30:45:02:20:78:55:A3:CA:27:4A:6A:F4:80:E0:DB:13:
                                7B:90:91:A3:A7:EC:C8:B3:64:1B:0C:CC:7E:BA:AB:4E:
                                DB:DF:B6:5D:02:21:00:98:0D:17:CD:B7:20:A6:13:DF:
                                54:E4:4C:3D:A8:52:D9:70:12:D3:07:05:B9:EF:AC:E2:
                                05:F9:9C:B7:94:97:40
    Signature Algorithm: sha256WithRSAEncryption
         6a:94:62:1e:04:29:c4:6a:df:13:a2:31:60:a2:bb:28:6a:75:
         43:25:48:11:a0:2b:82:46:bb:d8:96:1a:1f:c6:4b:a7:11:6f:
         f9:97:aa:37:15:1c:78:18:29:ad:28:62:f6:7d:7b:7f:c8:12:
         ca:42:27:12:5b:c4:b6:b0:3b:58:fb:64:36:bc:4c:a3:a6:d9:
         13:0a:6a:76:84:68:fd:88:7a:5a:d9:31:55:d0:55:80:b5:5e:
         d7:a8:65:36:c0:dc:79:f2:71:01:be:44:74:f1:3e:31:c5:a5:
         41:24:58:cb:9d:b0:3d:b5:18:39:a0:83:36:6b:67:1d:0e:73:
         bf:c6:89:32:53:9a:6b:0e:75:11:70:25:e0:d9:00:eb:d1:32:
         e3:92:79:95:af:02:b7:45:6d:e6:bb:9e:3e:af:7e:38:d2:03:
         82:cb:12:e1:f1:ec:15:82:3a:7b:ea:6a:b6:a7:06:69:48:6a:
         eb:e4:4f:fa:0f:5c:65:2b:27:0c:b6:38:5d:e3:42:c0:f5:93:
         89:9d:a5:84:2c:3b:6e:39:9a:5a:dc:cf:87:0d:3c:b9:a3:8d:
         59:04:00:cf:cc:6a:da:0f:f0:3d:fe:e3:37:b8:8d:fa:34:d4:
         79:55:8f:b9:e2:2e:f5:f3:46:35:75:f8:54:60:e2:5f:68:44:
         83:27:44:81
-----BEGIN CERTIFICATE-----
MIIHpzCCBo+gAwIBAgIQDBBu30SfB/T0mFxzXhT8OTANBgkqhkiG9w0BAQsFADBz
MQswCQYDVQQGEwJOTDEWMBQGA1UECBMNTm9vcmQtSG9sbGFuZDESMBAGA1UEBxMJ
QW1zdGVyZGFtMQ8wDQYDVQQKEwZURVJFTkExJzAlBgNVBAMTHlRFUkVOQSBTU0wg
SGlnaCBBc3N1cmFuY2UgQ0EgMzAeFw0xODAxMTIwMDAwMDBaFw0yMDAxMTcxMjAw
MDBaMIGxMRowGAYDVQQPDBFHb3Zlcm5tZW50IEVudGl0eTETMBEGCysGAQQBgjc8
AgEDEwJDWjEaMBgGA1UEBRMRR292ZXJubWVudCBFbnRpdHkxCzAJBgNVBAYTAkNa
MRAwDgYDVQQHEwdQcmFoYSA2MS0wKwYDVQQKEyRDemVjaCBUZWNobmljYWwgVW5p
dmVyc2l0eSBpbiBQcmFndWUxFDASBgNVBAMTC2ZpdC5jdnV0LmN6MIIBIjANBgkq
hkiG9w0BAQEFAAOCAQ8AMIIBCgKCAQEAyHP7GAz1ZLHlRFiCde4VxagkMeB4hkFf
FLS4P47m5dUP3i6WOaX+RF/nVEVu82xSIiFmD5/0uRwd66mWQCQLE2ySkGG6skyA
JCiwLquhCaLA8MlBteQEN6iC4JaWFpiZElygpJyUg0Ld0tJwjWHStkkdYhsEIMfg
gD+/JutFsU9nQc3GZaRMHNiYDUoZun/Rnc02ztUzdmHf1iILoWvt1cv929wtf9Bs
1p24Y498RQnt0QvoQK5WVb8l0CsYbSh1EMJjH0cMMFrDQsd1Ezk+RMDdBq1nv+ti
nGUokqYEZNUsRmTPXSYZO9jQqXkdjAIzm4oP4VA45B+t/GhNXbRRvQIDAQABo4ID
9jCCA/IwHwYDVR0jBBgwFoAUwriF1+G5E73RSLz9Xtx9kEJ6iqkwHQYDVR0OBBYE
FJ4tb0sknH5qEXB4Kp2Tdgs3sI3aMCcGA1UdEQQgMB6CC2ZpdC5jdnV0LmN6gg93
d3cuZml0LmN2dXQuY3owDgYDVR0PAQH/BAQDAgWgMB0GA1UdJQQWMBQGCCsGAQUF
BwMBBggrBgEFBQcDAjCBhQYDVR0fBH4wfDA8oDqgOIY2aHR0cDovL2NybDMuZGln
aWNlcnQuY29tL1RFUkVOQVNTTEhpZ2hBc3N1cmFuY2VDQTMuY3JsMDygOqA4hjZo
dHRwOi8vY3JsNC5kaWdpY2VydC5jb20vVEVSRU5BU1NMSGlnaEFzc3VyYW5jZUNB
My5jcmwwSwYDVR0gBEQwQjA3BglghkgBhv1sAgEwKjAoBggrBgEFBQcCARYcaHR0
cHM6Ly93d3cuZGlnaWNlcnQuY29tL0NQUzAHBgVngQwBATB7BggrBgEFBQcBAQRv
MG0wJAYIKwYBBQUHMAGGGGh0dHA6Ly9vY3NwLmRpZ2ljZXJ0LmNvbTBFBggrBgEF
BQcwAoY5aHR0cDovL2NhY2VydHMuZGlnaWNlcnQuY29tL1RFUkVOQVNTTEhpZ2hB
c3N1cmFuY2VDQTMuY3J0MAwGA1UdEwEB/wQCMAAwggH2BgorBgEEAdZ5AgQCBIIB
5gSCAeIB4AB3AKS5CZC0GFgUh7sTosxncAo8NZgE+RvfuON3zQ7IDdwQAAABYOqS
hg8AAAQDAEgwRgIhAONmF3kHcqBWpDENPpRxec39Fi/DzkGEPBsxRSDT7VUnAiEA
7SrHZqsMfqRf2IMZl4Kg6Eq2ERdsYoBb1e+LhGC38hQAdgBWFAaaL9fC7NP14b1E
sj7HRna5vJkRXMDvlJhV1onQ3QAAAWDqkocTAAAEAwBHMEUCIAl4Y6+jDbox3k/n
HNsuYQ3nHglv4nV5WrLXAp0j7YOGAiEAgtknLz7Nx9sTO/k317lfMvoryDkGWJFP
ajilvizzRmUAdQDuS723dc5guuFCaR+r4Z5mow9+X7By2IMAxHuJeqj9ywAAAWDq
kokIAAAEAwBGMEQCIGV33HEP+YA0OtpaW+yYoCG/JLnYLcnImOkp9OyzdLMJAiBm
SdCixmY5vpd0MpKm8ZsWiDRtGZfX+3F10hS//Zvk2QB2ALvZ37wfinG1k5Qjl6qS
e0c4V5UKq1LoGpCWZDaOHtGFAAABYOqShf4AAAQDAEcwRQIgeFWjyidKavSA4NsT
e5CRo6fsyLNkGwzMfrqrTtvftl0CIQCYDRfNtyCmE99U5Ew9qFLZcBLTBwW576zi
Bfmct5SXQDANBgkqhkiG9w0BAQsFAAOCAQEAapRiHgQpxGrfE6IxYKK7KGp1QyVI
EaArgka72JYaH8ZLpxFv+ZeqNxUceBgprShi9n17f8gSykInElvEtrA7WPtkNrxM
o6bZEwpqdoRo/Yh6WtkxVdBVgLVe16hlNsDcefJxAb5EdPE+McWlQSRYy52wPbUY
OaCDNmtnHQ5zv8aJMlOaaw51EXAl4NkA69Ey45J5la8Ct0Vt5ruePq9+ONIDgssS
4fHsFYI6e+pqtqcGaUhq6+RP+g9cZSsnDLY4XeNCwPWTiZ2lhCw7bjmaWtzPhw08
uaONWQQAz8xq2g/wPf7jN7iN+jTUeVWPueIu9fNGNXX4VGDiX2hEgydEgQ==
-----END CERTIFICATE-----
